; Function Attrs: nounwind uwtable
define internal fastcc range(i32 -5, 1) i32 @onig_region_resize_clear(ptr noundef nonnull captures(none) initializes((4, 8)) %0, i32 noundef range(i32 -2147483647, -2147483648) %1) unnamed_addr #4 {
  %3 = getelementptr inbounds nuw i8, ptr %0, i64 4
  store i32 %1, ptr %3, align 4, !tbaa !21
  %spec.store.select.i = tail call i32 @llvm.smax.i32(i32 %1, i32 10)
  %4 = load i32, ptr %0, align 8, !tbaa !27
  %5 = icmp eq i32 %4, 0
  br i1 %5, label %6, label %15

6:                                                ; preds = %2
  %7 = zext nneg i32 %spec.store.select.i to i64
  %8 = shl nuw nsw i64 %7, 2
  %9 = tail call noalias ptr @malloc(i64 noundef %8) #28
  %10 = getelementptr inbounds nuw i8, ptr %0, i64 8
  store ptr %9, ptr %10, align 8, !tbaa !23
  %11 = tail call noalias ptr @malloc(i64 noundef %8) #28
  %12 = getelementptr inbounds nuw i8, ptr %0, i64 16
  store ptr %11, ptr %12, align 8, !tbaa !22
  %13 = icmp eq ptr %9, null
  %14 = icmp eq ptr %11, null
  %or.cond.i = or i1 %13, %14
  br i1 %or.cond.i, label %onig_region_resize.exit, label %.sink.split.i

15:                                               ; preds = %2
  %16 = icmp slt i32 %4, %spec.store.select.i
  br i1 %16, label %17, label %29

17:                                               ; preds = %15
  %18 = getelementptr inbounds nuw i8, ptr %0, i64 8
  %19 = load ptr, ptr %18, align 8, !tbaa !23
  %20 = zext nneg i32 %spec.store.select.i to i64
  %21 = shl nuw nsw i64 %20, 2
  %22 = tail call ptr @realloc(ptr noundef %19, i64 noundef %21) #29
  store ptr %22, ptr %18, align 8, !tbaa !23
  %23 = getelementptr inbounds nuw i8, ptr %0, i64 16
  %24 = load ptr, ptr %23, align 8, !tbaa !22
  %25 = tail call ptr @realloc(ptr noundef %24, i64 noundef %21) #29
  store ptr %25, ptr %23, align 8, !tbaa !22
  %26 = load ptr, ptr %18, align 8, !tbaa !23
  %27 = icmp eq ptr %26, null
  %28 = icmp eq ptr %25, null
  %or.cond25.i = or i1 %28, %27
  br i1 %or.cond25.i, label %onig_region_resize.exit, label %..sink.split.i_crit_edge

..sink.split.i_crit_edge:                         ; preds = %17
  %.pre.pre = load i32, ptr %3, align 4, !tbaa !21
  br label %.sink.split.i

.sink.split.i:                                    ; preds = %..sink.split.i_crit_edge, %6
  %.pre = phi i32 [ %.pre.pre, %..sink.split.i_crit_edge ], [ %1, %6 ]
  store i32 %spec.store.select.i, ptr %0, align 8, !tbaa !27
  br label %29

29:                                               ; preds = %15, %.sink.split.i
  %30 = phi i32 [ %1, %15 ], [ %.pre, %.sink.split.i ]
  %31 = icmp sgt i32 %30, 0
  br i1 %31, label %.lr.ph.i, label %._crit_edge.i

.lr.ph.i:                                         ; preds = %29
  %32 = getelementptr inbounds nuw i8, ptr %0, i64 16
  %33 = load ptr, ptr %32, align 8, !tbaa !22
  %34 = getelementptr inbounds nuw i8, ptr %0, i64 8
  %35 = load ptr, ptr %34, align 8, !tbaa !23
  br label %36

36:                                               ; preds = %36, %.lr.ph.i
  %indvars.iv.i = phi i64 [ 0, %.lr.ph.i ], [ %indvars.iv.next.i, %36 ]
  %37 = getelementptr inbounds nuw i32, ptr %33, i64 %indvars.iv.i
  store i32 -1, ptr %37, align 4, !tbaa !24
  %38 = getelementptr inbounds nuw i32, ptr %35, i64 %indvars.iv.i
  store i32 -1, ptr %38, align 4, !tbaa !24
  %indvars.iv.next.i = add nuw nsw i64 %indvars.iv.i, 1
  %39 = load i32, ptr %3, align 4, !tbaa !21
  %40 = sext i32 %39 to i64
  %41 = icmp slt i64 %indvars.iv.next.i, %40
  br i1 %41, label %36, label %._crit_edge.i, !llvm.loop !25

._crit_edge.i:                                    ; preds = %36, %29
  %42 = getelementptr inbounds nuw i8, ptr %0, i64 24
  %43 = load ptr, ptr %42, align 8, !tbaa !16
  %44 = icmp eq ptr %43, null
  br i1 %44, label %onig_region_resize.exit, label %45

45:                                               ; preds = %._crit_edge.i
  tail call fastcc void @history_tree_free(ptr noundef %43)
  store ptr null, ptr %42, align 8, !tbaa !16
  br label %onig_region_resize.exit

onig_region_resize.exit:                          ; preds = %45, %._crit_edge.i, %17, %6
  %.0 = phi i32 [ -5, %6 ], [ -5, %17 ], [ 0, %._crit_edge.i ], [ 0, %45 ]
  ret i32 %.0
}